target datalayout = "e-m:e-p270:32:32-p271:32:32-p272:64:64-i64:64-i128:128-f80:128-n8:16:32:64-S128"
target triple = "x86_64-pc-linux-gnu"

%"class.cv::Mat" = type { i32, i32, i32, i32, ptr, ptr, ptr, ptr, ptr, ptr, %"struct.cv::MatSize", %"struct.cv::MatStep" }
%"struct.cv::MatSize" = type { ptr }
%"struct.cv::MatStep" = type { ptr, [2 x i64] }
%"struct.cv::ximgproc::EdgeDrawing::Params" = type { i8, i32, i32, i32, i32, i32, float, i8, i8, i32, double, double, double }
%"class.cv::ximgproc::EdgeDrawing" = type { %"class.cv::Algorithm", %"struct.cv::ximgproc::EdgeDrawing::Params" }
%"class.cv::Algorithm" = type { ptr }
%"class.cv::ximgproc::EdgeDrawingImpl" = type { %"class.cv::ximgproc::EdgeDrawing", i32, i32, ptr, %"class.std::vector", %"class.std::vector.12", %"class.cv::Mat", ptr, ptr, i32, %"class.cv::Mat", double, ptr, ptr, i32, i32, %"class.std::vector.17", %"class.std::vector.17", %"class.cv::Mat", %"class.cv::Mat", %"class.cv::Mat", ptr, ptr, i32, i32, i32, %"class.std::vector.22", i32, i32, double, double, double, double, ptr, i32, i32, %"class.std::vector.27", %"class.std::vector.32", ptr, ptr, ptr, i32, i32, i32, ptr, ptr, ptr, ptr, ptr, ptr, ptr }
%"class.std::vector" = type { %"struct.std::_Vector_base" }
%"struct.std::_Vector_base" = type { %"struct.std::_Vector_base<std::vector<cv::Point_<int>>, std::allocator<std::vector<cv::Point_<int>>>>::_Vector_impl" }
%"struct.std::_Vector_base<std::vector<cv::Point_<int>>, std::allocator<std::vector<cv::Point_<int>>>>::_Vector_impl" = type { %"struct.std::_Vector_base<std::vector<cv::Point_<int>>, std::allocator<std::vector<cv::Point_<int>>>>::_Vector_impl_data" }
%"struct.std::_Vector_base<std::vector<cv::Point_<int>>, std::allocator<std::vector<cv::Point_<int>>>>::_Vector_impl_data" = type { ptr, ptr, ptr }
%"class.std::vector.12" = type { %"struct.std::_Vector_base.13" }
%"struct.std::_Vector_base.13" = type { %"struct.std::_Vector_base<int, std::allocator<int>>::_Vector_impl" }
%"struct.std::_Vector_base<int, std::allocator<int>>::_Vector_impl" = type { %"struct.std::_Vector_base<int, std::allocator<int>>::_Vector_impl_data" }
%"struct.std::_Vector_base<int, std::allocator<int>>::_Vector_impl_data" = type { ptr, ptr, ptr }
%"class.std::vector.17" = type { %"struct.std::_Vector_base.18" }
%"struct.std::_Vector_base.18" = type { %"struct.std::_Vector_base<cv::Point_<int>, std::allocator<cv::Point_<int>>>::_Vector_impl" }
%"struct.std::_Vector_base<cv::Point_<int>, std::allocator<cv::Point_<int>>>::_Vector_impl" = type { %"struct.std::_Vector_base<cv::Point_<int>, std::allocator<cv::Point_<int>>>::_Vector_impl_data" }
%"struct.std::_Vector_base<cv::Point_<int>, std::allocator<cv::Point_<int>>>::_Vector_impl_data" = type { ptr, ptr, ptr }
%"class.std::vector.22" = type { %"struct.std::_Vector_base.23" }
%"struct.std::_Vector_base.23" = type { %"struct.std::_Vector_base<EDLineSegment, std::allocator<EDLineSegment>>::_Vector_impl" }
%"struct.std::_Vector_base<EDLineSegment, std::allocator<EDLineSegment>>::_Vector_impl" = type { %"struct.std::_Vector_base<EDLineSegment, std::allocator<EDLineSegment>>::_Vector_impl_data" }
%"struct.std::_Vector_base<EDLineSegment, std::allocator<EDLineSegment>>::_Vector_impl_data" = type { ptr, ptr, ptr }
%"class.std::vector.27" = type { %"struct.std::_Vector_base.28" }
%"struct.std::_Vector_base.28" = type { %"struct.std::_Vector_base<mCircle, std::allocator<mCircle>>::_Vector_impl" }
%"struct.std::_Vector_base<mCircle, std::allocator<mCircle>>::_Vector_impl" = type { %"struct.std::_Vector_base<mCircle, std::allocator<mCircle>>::_Vector_impl_data" }
%"struct.std::_Vector_base<mCircle, std::allocator<mCircle>>::_Vector_impl_data" = type { ptr, ptr, ptr }
%"class.std::vector.32" = type { %"struct.std::_Vector_base.33" }
%"struct.std::_Vector_base.33" = type { %"struct.std::_Vector_base<mEllipse, std::allocator<mEllipse>>::_Vector_impl" }
%"struct.std::_Vector_base<mEllipse, std::allocator<mEllipse>>::_Vector_impl" = type { %"struct.std::_Vector_base<mEllipse, std::allocator<mEllipse>>::_Vector_impl_data" }
%"struct.std::_Vector_base<mEllipse, std::allocator<mEllipse>>::_Vector_impl_data" = type { ptr, ptr, ptr }

; Function Attrs: mustprogress uwtable
define hidden void @_ZN2cv8ximgproc15EdgeDrawingImpl16getGradientImageERKNS_12_OutputArrayE(ptr noundef nonnull align 8 dereferenceable(976) %0, ptr noundef nonnull align 8 dereferenceable(24) %1) unnamed_addr #4 align 2 {
  %3 = alloca ptr, align 8
  %4 = alloca ptr, align 8
  store ptr %0, ptr %3, align 8, !tbaa !134
  store ptr %1, ptr %4, align 8, !tbaa !237
  %5 = load ptr, ptr %3, align 8
  %6 = getelementptr inbounds nuw %"class.cv::ximgproc::EdgeDrawingImpl", ptr %5, i32 0, i32 19
  %7 = call noundef zeroext i1 @_ZNK2cv3Mat5emptyEv(ptr noundef nonnull align 8 dereferenceable(96) %6)
  br i1 %7, label %11, label %8

8:                                                ; preds = %2
  %9 = getelementptr inbounds nuw %"class.cv::ximgproc::EdgeDrawingImpl", ptr %5, i32 0, i32 19
  %10 = load ptr, ptr %4, align 8, !tbaa !237
  call void @_ZNK2cv3Mat6copyToERKNS_12_OutputArrayE(ptr noundef nonnull align 8 dereferenceable(96) %9, ptr noundef nonnull align 8 dereferenceable(24) %10)
  br label %11

11:                                               ; preds = %8, %2
  ret void
}