; Function Attrs: mustprogress uwtable
define hidden void @_ZN2cv8ximgproc15EdgeDrawingImpl16getGradientImageERKNS_12_OutputArrayE(ptr noundef nonnull align 8 dereferenceable(976) %0, ptr noundef nonnull align 8 dereferenceable(24) %1) unnamed_addr #3 align 2 {
  %3 = getelementptr inbounds nuw i8, ptr %0, i64 528
  %4 = tail call noundef zeroext i1 @_ZNK2cv3Mat5emptyEv(ptr noundef nonnull align 8 dereferenceable(96) %3)
  br i1 %4, label %6, label %5

5:                                                ; preds = %2
  tail call void @_ZNK2cv3Mat6copyToERKNS_12_OutputArrayE(ptr noundef nonnull align 8 dereferenceable(96) %3, ptr noundef nonnull align 8 dereferenceable(24) %1)
  br label %6

6:                                                ; preds = %5, %2
  ret void
}